target datalayout = "e-m:e-p270:32:32-p271:32:32-p272:64:64-i64:64-i128:128-f80:128-n8:16:32:64-S128"
target triple = "x86_64-pc-linux-gnu"

%"class.icu_77::ResourceBundle" = type { %"class.icu_77::UObject", ptr, ptr }
%"class.icu_77::UObject" = type { ptr }
%struct.UResourceBundle = type { ptr, ptr, ptr, ptr, ptr, [64 x i8], i32, i32, i8, i8, i32, i32, i32, i32 }

@_ZN6icu_7714ResourceBundleC1EP15UResourceBundleR10UErrorCode = unnamed_addr alias void (ptr, ptr, ptr), ptr @_ZN6icu_7714ResourceBundleC2EP15UResourceBundleR10UErrorCode
@_ZN6icu_7714ResourceBundleD1Ev = unnamed_addr alias void (ptr), ptr @_ZN6icu_7714ResourceBundleD2Ev

; Function Attrs: inlinehint mustprogress nounwind uwtable
define internal noundef signext i8 @_ZL9U_SUCCESS10UErrorCode(i32 noundef %0) #3 {
  %2 = alloca i32, align 4
  store i32 %0, ptr %2, align 4, !tbaa !24
  %3 = load i32, ptr %2, align 4, !tbaa !24
  %4 = icmp sle i32 %3, 0
  %5 = zext i1 %4 to i8
  ret i8 %5
}

; Function Attrs: mustprogress uwtable
define void @_ZN6icu_7714ResourceBundle7getNextER10UErrorCode(ptr dead_on_unwind noalias writable sret(%"class.icu_77::ResourceBundle") align 8 %0, ptr noundef nonnull align 8 dereferenceable(24) %1, ptr noundef nonnull align 4 dereferenceable(4) %2) #1 align 2 personality ptr @__gxx_personality_v0 {
  %4 = alloca ptr, align 8
  %5 = alloca ptr, align 8
  %6 = alloca ptr, align 8
  %7 = alloca %struct.UResourceBundle, align 8
  %8 = alloca i1, align 1
  %9 = alloca ptr, align 8
  %10 = alloca i32, align 4
  store ptr %0, ptr %4, align 8
  store ptr %1, ptr %5, align 8, !tbaa !3
  store ptr %2, ptr %6, align 8, !tbaa !8
  %11 = load ptr, ptr %5, align 8
  call void @llvm.lifetime.start.p0(i64 136, ptr %7) #8
  call void @ures_initStackObject_77(ptr noundef %7)
  %12 = getelementptr inbounds nuw %"class.icu_77::ResourceBundle", ptr %11, i32 0, i32 1
  %13 = load ptr, ptr %12, align 8, !tbaa !16
  %14 = load ptr, ptr %6, align 8, !tbaa !8
  %15 = call ptr @ures_getNextResource_77(ptr noundef %13, ptr noundef %7, ptr noundef %14)
  store i1 false, ptr %8, align 1
  %16 = load ptr, ptr %6, align 8, !tbaa !8
  call void @_ZN6icu_7714ResourceBundleC1EP15UResourceBundleR10UErrorCode(ptr noundef nonnull align 8 dereferenceable(24) %0, ptr noundef %7, ptr noundef nonnull align 4 dereferenceable(4) %16)
  %17 = load ptr, ptr %6, align 8, !tbaa !8
  %18 = load i32, ptr %17, align 4, !tbaa !24
  %19 = invoke noundef signext i8 @_ZL9U_SUCCESS10UErrorCode(i32 noundef %18)
          to label %20 unwind label %24

20:                                               ; preds = %3
  %21 = icmp ne i8 %19, 0
  br i1 %21, label %22, label %28

22:                                               ; preds = %20
  invoke void @ures_close_77(ptr noundef %7)
          to label %23 unwind label %24

23:                                               ; preds = %22
  br label %28

24:                                               ; preds = %22, %3
  %25 = landingpad { ptr, i32 }
          cleanup
  %26 = extractvalue { ptr, i32 } %25, 0
  store ptr %26, ptr %9, align 8
  %27 = extractvalue { ptr, i32 } %25, 1
  store i32 %27, ptr %10, align 4
  call void @_ZN6icu_7714ResourceBundleD1Ev(ptr noundef nonnull align 8 dereferenceable(24) %0) #8
  call void @llvm.lifetime.end.p0(i64 136, ptr %7) #8
  br label %32

28:                                               ; preds = %23, %20
  store i1 true, ptr %8, align 1
  %29 = load i1, ptr %8, align 1
  br i1 %29, label %31, label %30

30:                                               ; preds = %28
  call void @_ZN6icu_7714ResourceBundleD1Ev(ptr noundef nonnull align 8 dereferenceable(24) %0) #8
  br label %31

31:                                               ; preds = %30, %28
  call void @llvm.lifetime.end.p0(i64 136, ptr %7) #8
  ret void

32:                                               ; preds = %24
  %33 = load ptr, ptr %9, align 8
  %34 = load i32, ptr %10, align 4
  %35 = insertvalue { ptr, i32 } poison, ptr %33, 0
  %36 = insertvalue { ptr, i32 } %35, i32 %34, 1
  resume { ptr, i32 } %36
}