; Function Attrs: mustprogress uwtable
define void @_ZN6icu_7714ResourceBundle7getNextER10UErrorCode(ptr dead_on_unwind noalias writable sret(%"class.icu_77::ResourceBundle") align 8 %0, ptr noundef nonnull readonly align 8 captures(none) dereferenceable(24) %1, ptr noundef nonnull align 4 dereferenceable(4) %2) local_unnamed_addr #1 align 2 personality ptr @__gxx_personality_v0 {
  %4 = alloca %struct.UResourceBundle, align 8
  call void @llvm.lifetime.start.p0(i64 136, ptr nonnull %4) #8
  call void @ures_initStackObject_77(ptr noundef nonnull %4)
  %5 = getelementptr inbounds nuw i8, ptr %1, i64 8
  %6 = load ptr, ptr %5, align 8, !tbaa !17
  %7 = call ptr @ures_getNextResource_77(ptr noundef %6, ptr noundef nonnull %4, ptr noundef nonnull %2)
  call void @_ZN6icu_7714ResourceBundleC1EP15UResourceBundleR10UErrorCode(ptr noundef nonnull align 8 dereferenceable(24) %0, ptr noundef nonnull %4, ptr noundef nonnull align 4 dereferenceable(4) %2)
  %8 = load i32, ptr %2, align 4, !tbaa !18
  %9 = icmp sgt i32 %8, 0
  br i1 %9, label %13, label %10

10:                                               ; preds = %3
  invoke void @ures_close_77(ptr noundef nonnull %4)
          to label %13 unwind label %11

11:                                               ; preds = %10
  %12 = landingpad { ptr, i32 }
          cleanup
  call void @_ZN6icu_7714ResourceBundleD1Ev(ptr noundef nonnull align 8 dereferenceable(24) %0) #8
  call void @llvm.lifetime.end.p0(i64 136, ptr nonnull %4) #8
  resume { ptr, i32 } %12

13:                                               ; preds = %3, %10
  call void @llvm.lifetime.end.p0(i64 136, ptr nonnull %4) #8
  ret void
}